; Function Attrs: mustprogress uwtable
define hidden noundef nonnull ptr @_ZN17duckdb_libpgquery7pstrdupEPKc(ptr noundef readonly captures(none) %0) local_unnamed_addr #0 {
  %2 = tail call i64 @strlen(ptr noundef nonnull dereferenceable(1) %0) #28
  %3 = and i64 %2, -8
  %4 = add i64 %3, 16
  %5 = tail call align 8 ptr @llvm.threadlocal.address.p0(ptr align 8 @_ZN17duckdb_libpgqueryL15pg_parser_stateE)
  %6 = getelementptr inbounds nuw i8, ptr %5, i64 8200
  %7 = load i64, ptr %6, align 8, !tbaa !3
  %8 = add i64 %4, %7
  %9 = icmp ugt i64 %8, 10240
  br i1 %9, label %10, label %_ZN17duckdb_libpgquery6pallocEm.exit

10:                                               ; preds = %1
  tail call fastcc void @_ZN17duckdb_libpgqueryL12allocate_newEPNS_19pg_parser_state_strEm(ptr noundef %5, i64 noundef %4)
  %.pre.i = load i64, ptr %6, align 8, !tbaa !3
  br label %_ZN17duckdb_libpgquery6pallocEm.exit

_ZN17duckdb_libpgquery6pallocEm.exit:             ; preds = %1, %10
  %11 = phi i64 [ %.pre.i, %10 ], [ %7, %1 ]
  %12 = add i64 %2, 1
  %13 = getelementptr inbounds nuw i8, ptr %5, i64 8216
  %14 = load ptr, ptr %13, align 8, !tbaa !11
  %15 = getelementptr inbounds nuw i8, ptr %5, i64 8208
  %16 = load i64, ptr %15, align 8, !tbaa !12
  %17 = getelementptr ptr, ptr %14, i64 %16
  %18 = getelementptr i8, ptr %17, i64 -8
  %19 = load ptr, ptr %18, align 8, !tbaa !13
  %20 = getelementptr inbounds nuw i8, ptr %19, i64 %11
  store i64 %12, ptr %20, align 1
  %21 = getelementptr inbounds nuw i8, ptr %20, i64 8
  tail call void @llvm.memset.p0.i64(ptr nonnull align 1 %21, i8 0, i64 %12, i1 false)
  %22 = load i64, ptr %6, align 8, !tbaa !3
  %23 = add i64 %22, %4
  store i64 %23, ptr %6, align 8, !tbaa !3
  %24 = tail call i64 @strlen(ptr noundef nonnull dereferenceable(1) %0) #28
  tail call void @llvm.memcpy.p0.p0.i64(ptr nonnull align 1 %21, ptr nonnull align 1 %0, i64 %24, i1 false)
  ret ptr %21
}